target datalayout = "e-m:e-p270:32:32-p271:32:32-p272:64:64-i64:64-i128:128-f80:128-n8:16:32:64-S128"
target triple = "x86_64-pc-linux-gnu"

%struct.rb_data_type_struct = type { ptr, %struct.anon, ptr, ptr, i64 }
%struct.anon = type { ptr, ptr, ptr, ptr, [1 x ptr] }
%struct.JSON_Generator_StateStruct = type { i64, i64, i64, i64, i64, i64, i64, i64, i64, i8, i8, i8, i8 }

@JSON_Generator_State_type = internal constant %struct.rb_data_type_struct { ptr @.str.74, %struct.anon { ptr @State_mark, ptr @State_free, ptr @State_memsize, ptr @State_compact, [1 x ptr] zeroinitializer }, ptr null, ptr null, i64 289 }, align 8
@.str.79 = private unnamed_addr constant [1 x i8] zeroinitializer, align 1

; Function Attrs: nounwind sspstrong uwtable
define internal i64 @cState_space_before(i64 noundef %0) #0 {
  %2 = alloca i64, align 8
  %3 = alloca ptr, align 8
  store i64 %0, ptr %2, align 8, !tbaa !6
  call void @llvm.lifetime.start.p0(i64 8, ptr %3) #27
  %4 = load i64, ptr %2, align 8, !tbaa !6
  %5 = call ptr @rb_check_typeddata(i64 noundef %4, ptr noundef @JSON_Generator_State_type)
  store ptr %5, ptr %3, align 8, !tbaa !12
  %6 = load ptr, ptr %3, align 8, !tbaa !12
  %7 = getelementptr inbounds nuw %struct.JSON_Generator_StateStruct, ptr %6, i32 0, i32 2
  %8 = load i64, ptr %7, align 8, !tbaa !21
  %9 = icmp ne i64 %8, 0
  br i1 %9, label %10, label %14

10:                                               ; preds = %1
  %11 = load ptr, ptr %3, align 8, !tbaa !12
  %12 = getelementptr inbounds nuw %struct.JSON_Generator_StateStruct, ptr %11, i32 0, i32 2
  %13 = load i64, ptr %12, align 8, !tbaa !21
  br label %17

14:                                               ; preds = %1
  %15 = call i64 @rb_utf8_str_new_static(ptr noundef @.str.79, i64 noundef 0)
  %16 = call i64 @rb_str_freeze(i64 noundef %15)
  br label %17

17:                                               ; preds = %14, %10
  %18 = phi i64 [ %13, %10 ], [ %16, %14 ]
  call void @llvm.lifetime.end.p0(i64 8, ptr %3) #27
  ret i64 %18
}